target datalayout = "e-m:e-p270:32:32-p271:32:32-p272:64:64-i64:64-i128:128-f80:128-n8:16:32:64-S128"
target triple = "x86_64-pc-linux-gnu"

%struct.linger = type { i32, i32 }
%struct.uv_tcp_s = type { ptr, ptr, i32, ptr, [2 x ptr], %union.anon, ptr, i32, i64, ptr, ptr, ptr, ptr, %struct.uv__io_s, [2 x ptr], [2 x ptr], ptr, i32, i32, ptr }
%union.anon = type { [4 x ptr] }
%struct.uv__io_s = type { ptr, [2 x ptr], [2 x ptr], i32, i32, i32 }

@__const.uv_tcp_close_reset.l = private unnamed_addr constant %struct.linger { i32 1, i32 0 }, align 4

; Function Attrs: nounwind uwtable
define dso_local i32 @uv_tcp_close_reset(ptr noundef %0, ptr noundef %1) #0 {
  %3 = alloca i32, align 4
  %4 = alloca ptr, align 8
  %5 = alloca ptr, align 8
  %6 = alloca i32, align 4
  %7 = alloca %struct.linger, align 4
  %8 = alloca i32, align 4
  store ptr %0, ptr %4, align 8, !tbaa !9
  store ptr %1, ptr %5, align 8, !tbaa !13
  call void @llvm.lifetime.start.p0(i64 4, ptr %6) #8
  call void @llvm.lifetime.start.p0(i64 8, ptr %7) #8
  call void @llvm.memcpy.p0.p0.i64(ptr align 4 %7, ptr align 4 @__const.uv_tcp_close_reset.l, i64 8, i1 false)
  %9 = load ptr, ptr %4, align 8, !tbaa !9
  %10 = getelementptr inbounds nuw %struct.uv_tcp_s, ptr %9, i32 0, i32 7
  %11 = load i32, ptr %10, align 8, !tbaa !16
  %12 = and i32 %11, 256
  %13 = icmp ne i32 %12, 0
  br i1 %13, label %14, label %15

14:                                               ; preds = %2
  store i32 -22, ptr %3, align 4
  store i32 1, ptr %8, align 4
  br label %37

15:                                               ; preds = %2
  %16 = load ptr, ptr %4, align 8, !tbaa !9
  %17 = getelementptr inbounds nuw %struct.uv_tcp_s, ptr %16, i32 0, i32 13
  %18 = getelementptr inbounds nuw %struct.uv__io_s, ptr %17, i32 0, i32 5
  %19 = load i32, ptr %18, align 8, !tbaa !22
  store i32 %19, ptr %6, align 4, !tbaa !11
  %20 = load i32, ptr %6, align 4, !tbaa !11
  %21 = call i32 @setsockopt(i32 noundef %20, i32 noundef 1, i32 noundef 13, ptr noundef %7, i32 noundef 8) #8
  %22 = icmp ne i32 0, %21
  br i1 %22, label %23, label %34

23:                                               ; preds = %15
  %24 = call ptr @__errno_location() #9
  %25 = load i32, ptr %24, align 4, !tbaa !11
  %26 = icmp eq i32 %25, 22
  br i1 %26, label %27, label %29

27:                                               ; preds = %23
  %28 = call ptr @__errno_location() #9
  store i32 0, ptr %28, align 4, !tbaa !11
  br label %33

29:                                               ; preds = %23
  %30 = call ptr @__errno_location() #9
  %31 = load i32, ptr %30, align 4, !tbaa !11
  %32 = sub nsw i32 0, %31
  store i32 %32, ptr %3, align 4
  store i32 1, ptr %8, align 4
  br label %37

33:                                               ; preds = %27
  br label %34

34:                                               ; preds = %33, %15
  %35 = load ptr, ptr %4, align 8, !tbaa !9
  %36 = load ptr, ptr %5, align 8, !tbaa !13
  call void @uv_close(ptr noundef %35, ptr noundef %36)
  store i32 0, ptr %3, align 4
  store i32 1, ptr %8, align 4
  br label %37

37:                                               ; preds = %34, %29, %14
  call void @llvm.lifetime.end.p0(i64 8, ptr %7) #8
  call void @llvm.lifetime.end.p0(i64 4, ptr %6) #8
  %38 = load i32, ptr %3, align 4
  ret i32 %38
}