; Function Attrs: nounwind uwtable
define dso_local range(i32 -2147483647, -2147483648) i32 @uv_tcp_close_reset(ptr noundef %0, ptr noundef %1) local_unnamed_addr #0 {
  %3 = alloca %struct.linger, align 8
  call void @llvm.lifetime.start.p0(i64 8, ptr nonnull %3) #8
  store i64 1, ptr %3, align 8
  %4 = getelementptr inbounds nuw i8, ptr %0, i64 88
  %5 = load i32, ptr %4, align 8, !tbaa !22
  %6 = and i32 %5, 256
  %.not = icmp eq i32 %6, 0
  br i1 %.not, label %7, label %19

7:                                                ; preds = %2
  %8 = getelementptr inbounds nuw i8, ptr %0, i64 184
  %9 = load i32, ptr %8, align 8, !tbaa !4
  %10 = call i32 @setsockopt(i32 noundef %9, i32 noundef 1, i32 noundef 13, ptr noundef nonnull %3, i32 noundef 8) #8
  %.not6 = icmp eq i32 %10, 0
  br i1 %.not6, label %18, label %11

11:                                               ; preds = %7
  %12 = tail call ptr @__errno_location() #9
  %13 = load i32, ptr %12, align 4, !tbaa !20
  %14 = icmp eq i32 %13, 22
  br i1 %14, label %15, label %16

15:                                               ; preds = %11
  store i32 0, ptr %12, align 4, !tbaa !20
  br label %18

16:                                               ; preds = %11
  %17 = sub nsw i32 0, %13
  br label %19

18:                                               ; preds = %15, %7
  call void @uv_close(ptr noundef nonnull %0, ptr noundef %1) #8
  br label %19

19:                                               ; preds = %2, %18, %16
  %.0 = phi i32 [ 0, %18 ], [ %17, %16 ], [ -22, %2 ]
  call void @llvm.lifetime.end.p0(i64 8, ptr nonnull %3) #8
  ret i32 %.0
}